	.cpu cortex-m0
	.fpu softvfp
	.eabi_attribute 20, 1
	.eabi_attribute 21, 1
	.eabi_attribute 23, 3
	.eabi_attribute 24, 1
	.eabi_attribute 25, 1
	.eabi_attribute 26, 1
	.eabi_attribute 30, 1
	.eabi_attribute 34, 0
	.eabi_attribute 18, 4
	.code	16
	.file	"test.c"
	.text
.Ltext0:
	.cfi_sections	.debug_frame
	.align	2
	.global	stop_light
	.code	16
	.thumb_func
	.type	stop_light, %function
stop_light:
.LFB0:
	.file 1 "test.c"
	.loc 1 23 0
	.cfi_startproc
	push	{r3, lr}
	.cfi_def_cfa_offset 8
	.cfi_offset 3, -8
	.cfi_offset 14, -4
	.loc 1 26 0
	ldr	r3, .L11
	ldr	r3, [r3]
	cmp	r3, #1
	beq	.L3
	cmp	r3, #2
	beq	.L4
	cmp	r3, #0
	bne	.L10
	.loc 1 28 0
	ldr	r0, .L11+4
	bl	puts
.LVL0:
	.loc 1 29 0
	ldr	r3, .L11
	ldr	r3, [r3, #4]
	add	r3, r3, #1
	cmp	r3, #4
	bgt	.L6
	ldr	r2, .L11
	str	r3, [r2, #4]
	b	.L1
.L6:
	.loc 1 30 0
	ldr	r3, .L11
	mov	r2, #0
	str	r2, [r3, #4]
	.loc 1 31 0
	mov	r2, #2
	str	r2, [r3]
	b	.L1
.L4:
	.loc 1 36 0
	ldr	r0, .L11+8
	bl	puts
.LVL1:
	.loc 1 37 0
	ldr	r3, .L11
	ldr	r3, [r3, #4]
	add	r3, r3, #1
	cmp	r3, #4
	bgt	.L8
	ldr	r2, .L11
	str	r3, [r2, #4]
	b	.L1
.L8:
	.loc 1 38 0
	ldr	r3, .L11
	mov	r2, #0
	str	r2, [r3, #4]
	.loc 1 39 0
	mov	r2, #1
	str	r2, [r3]
	b	.L1
.L3:
	.loc 1 44 0
	ldr	r0, .L11+12
	bl	puts
.LVL2:
	.loc 1 45 0
	ldr	r3, .L11
	ldr	r3, [r3, #4]
	add	r3, r3, #1
	cmp	r3, #1
	bgt	.L9
	ldr	r2, .L11
	str	r3, [r2, #4]
	b	.L1
.L9:
	.loc 1 46 0
	ldr	r3, .L11
	mov	r2, #0
	str	r2, [r3, #4]
	.loc 1 47 0
	str	r2, [r3]
	b	.L1
.L10:
	.loc 1 52 0
	ldr	r3, .L11
	mov	r2, #0
	str	r2, [r3]
	.loc 1 53 0
	str	r2, [r3, #4]
.L1:
	.loc 1 56 0
	@ sp needed
	pop	{r3, pc}
.L12:
	.align	2
.L11:
	.word	.LANCHOR0
	.word	.LC1
	.word	.LC3
	.word	.LC5
	.cfi_endproc
.LFE0:
	.size	stop_light, .-stop_light
	.align	2
	.global	main
	.code	16
	.thumb_func
	.type	main, %function
main:
.LFB1:
	.loc 1 58 0
	.cfi_startproc
	push	{r4, lr}
	.cfi_def_cfa_offset 8
	.cfi_offset 4, -8
	.cfi_offset 14, -4
.LVL3:
	.loc 1 59 0
	mov	r4, #0
.LVL4:
.L15:
	.loc 1 62 0
	bl	stop_light
.LVL5:
	.loc 1 63 0
	mov	r0, r4
	bl	inc
.LVL6:
	sub	r4, r0, #0
.LVL7:
	.loc 1 61 0
	cmp	r4, #35
	ble	.L15
	.loc 1 67 0
	mov	r0, #0
.LVL8:
	@ sp needed
.LVL9:
	pop	{r4, pc}
	.cfi_endproc
.LFE1:
	.size	main, .-main
	.section	.rodata.str1.4,"aMS",%progbits,1
	.align	2
.LC1:
	.ascii	"RED\000"
.LC3:
	.ascii	"GREEN\000"
	.space	2
.LC5:
	.ascii	"YELLOW\000"
	.bss
	.align	2
	.set	.LANCHOR0,. + 0
	.type	state, %object
	.size	state, 4
state:
	.space	4
	.type	state_counter.4968, %object
	.size	state_counter.4968, 4
state_counter.4968:
	.space	4
	.text
.Letext0:
	.file 2 "<built-in>"